; Function Attrs: mustprogress uwtable
define noundef i64 @_ZNK3net30QuicMultipathSentPacketManager29GetSlowStartThresholdInTcpMssEv(ptr noundef nonnull readonly align 8 captures(none) dereferenceable(40) %0) unnamed_addr #0 align 2 {
  %2 = tail call noundef ptr @_ZNK3net30QuicMultipathSentPacketManager38MaybeGetSentPacketManagerForActivePathEh(ptr noundef nonnull align 8 dereferenceable(40) %0, i8 noundef zeroext 0)
  %3 = icmp eq ptr %2, null
  br i1 %3, label %9, label %4

4:                                                ; preds = %1
  %5 = load ptr, ptr %2, align 8, !tbaa !3
  %6 = getelementptr inbounds nuw i8, ptr %5, i64 200
  %7 = load ptr, ptr %6, align 8
  %8 = tail call noundef i64 %7(ptr noundef nonnull align 8 dereferenceable(8) %2)
  br label %9

9:                                                ; preds = %1, %4
  %.0 = phi i64 [ %8, %4 ], [ 0, %1 ]
  ret i64 %.0
}